; Function Attrs: mustprogress uwtable
define hidden void @_ZN4cvc58internal6theory11quantifiers10SygusUtils17mkSygusConjectureEPNS0_11NodeManagerERKSt6vectorINS0_12NodeTemplateILb1EEESaIS8_EES8_(ptr dead_on_unwind noalias writable sret(%"class.cvc5::internal::NodeTemplate") align 8 %0, ptr noundef %1, ptr noundef nonnull readonly align 8 captures(none) dereferenceable(24) %2, ptr noundef readonly captures(none) %3) local_unnamed_addr #3 align 2 personality ptr @__gxx_personality_v0 {
  %5 = alloca %"class.std::vector", align 8
  %6 = alloca %"class.cvc5::internal::NodeTemplate", align 8
  call void @llvm.lifetime.start.p0(i64 24, ptr nonnull %5) #22
  call void @llvm.memset.p0.i64(ptr noundef nonnull align 8 dereferenceable(24) %5, i8 0, i64 24, i1 false)
  %7 = load ptr, ptr %3, align 8, !tbaa !18
  store ptr %7, ptr %6, align 8, !tbaa !18
  %8 = load i64, ptr %7, align 8
  %9 = lshr i64 %8, 40
  %10 = trunc nuw nsw i64 %9 to i32
  %11 = and i32 %10, 1048575
  %12 = icmp samesign ult i32 %11, 1048574
  br i1 %12, label %13, label %18, !prof !126

13:                                               ; preds = %4
  %14 = add i64 %8, 1099511627776
  %15 = and i64 %14, 1152920405095219200
  %16 = and i64 %8, -1152920405095219201
  %17 = or disjoint i64 %15, %16
  store i64 %17, ptr %7, align 8
  br label %_ZN4cvc58internal12NodeTemplateILb1EEC2ERKS2_.exit

18:                                               ; preds = %4
  %19 = icmp eq i32 %11, 1048574
  br i1 %19, label %20, label %_ZN4cvc58internal12NodeTemplateILb1EEC2ERKS2_.exit, !prof !17

20:                                               ; preds = %18
  %21 = or i64 %8, 1152920405095219200
  store i64 %21, ptr %7, align 8
  invoke void @_ZN4cvc58internal4expr9NodeValue20markRefCountMaxedOutEv(ptr noundef nonnull align 8 dereferenceable(24) %7)
          to label %_ZN4cvc58internal12NodeTemplateILb1EEC2ERKS2_.exit unwind label %36

_ZN4cvc58internal12NodeTemplateILb1EEC2ERKS2_.exit: ; preds = %18, %13, %20
  invoke void @_ZN4cvc58internal6theory11quantifiers10SygusUtils17mkSygusConjectureEPNS0_11NodeManagerERKSt6vectorINS0_12NodeTemplateILb1EEESaIS8_EES8_SC_(ptr dead_on_unwind writable sret(%"class.cvc5::internal::NodeTemplate") align 8 %0, ptr noundef %1, ptr noundef nonnull align 8 dereferenceable(24) %2, ptr noundef nonnull %6, ptr noundef nonnull align 8 dereferenceable(24) %5)
          to label %22 unwind label %38

22:                                               ; preds = %_ZN4cvc58internal12NodeTemplateILb1EEC2ERKS2_.exit
  %23 = load ptr, ptr %6, align 8, !tbaa !18
  %24 = load i64, ptr %23, align 8
  %25 = and i64 %24, 1152920405095219200
  %.not.i.i = icmp eq i64 %25, 1152920405095219200
  br i1 %.not.i.i, label %_ZNSt6vectorIN4cvc58internal12NodeTemplateILb1EEESaIS3_EED2Ev.exit, label %26, !prof !17

26:                                               ; preds = %22
  %27 = add i64 %24, 1152920405095219200
  %28 = and i64 %27, 1152920405095219200
  %29 = and i64 %24, -1152920405095219201
  %30 = or disjoint i64 %28, %29
  store i64 %30, ptr %23, align 8
  %31 = icmp eq i64 %28, 0
  br i1 %31, label %32, label %_ZNSt6vectorIN4cvc58internal12NodeTemplateILb1EEESaIS3_EED2Ev.exit, !prof !17

32:                                               ; preds = %26
  invoke void @_ZN4cvc58internal4expr9NodeValue15markForDeletionEv(ptr noundef nonnull align 8 dereferenceable(24) %23)
          to label %_ZNSt6vectorIN4cvc58internal12NodeTemplateILb1EEESaIS3_EED2Ev.exit unwind label %33

33:                                               ; preds = %32
  %34 = landingpad { ptr, i32 }
          catch ptr null
  %35 = extractvalue { ptr, i32 } %34, 0
  call void @__clang_call_terminate(ptr %35) #24
  unreachable

_ZNSt6vectorIN4cvc58internal12NodeTemplateILb1EEESaIS3_EED2Ev.exit: ; preds = %22, %26, %32
  call void @llvm.lifetime.end.p0(i64 24, ptr nonnull %5) #22
  ret void

36:                                               ; preds = %20
  %37 = landingpad { ptr, i32 }
          cleanup
  br label %40

38:                                               ; preds = %_ZN4cvc58internal12NodeTemplateILb1EEC2ERKS2_.exit
  %39 = landingpad { ptr, i32 }
          cleanup
  call void @_ZN4cvc58internal12NodeTemplateILb1EED2Ev(ptr noundef nonnull align 8 dereferenceable(8) %6) #22
  br label %40

40:                                               ; preds = %38, %36
  %.pn = phi { ptr, i32 } [ %39, %38 ], [ %37, %36 ]
  call void @_ZNSt6vectorIN4cvc58internal12NodeTemplateILb1EEESaIS3_EED2Ev(ptr noundef nonnull align 8 dereferenceable(24) %5) #22
  call void @llvm.lifetime.end.p0(i64 24, ptr nonnull %5) #22
  resume { ptr, i32 } %.pn
}